target datalayout = "e-m:e-p270:32:32-p271:32:32-p272:64:64-i64:64-i128:128-f80:128-n8:16:32:64-S128"
target triple = "x86_64-unknown-linux-gnu"

%"struct.proxygen::HTTPCommonHeaderName" = type { ptr, i8 }

; Function Attrs: mustprogress nounwind uwtable
define internal noundef i32 @_ZN8proxygenL17gperf_case_memcmpEPKcS1_m(ptr noundef %s1, ptr noundef %s2, i64 noundef %n) #1 {
entry:
  %retval = alloca i32, align 4
  %s1.addr = alloca ptr, align 8
  %s2.addr = alloca ptr, align 8
  %n.addr = alloca i64, align 8
  %c1 = alloca i8, align 1
  %c2 = alloca i8, align 1
  store ptr %s1, ptr %s1.addr, align 8
  store ptr %s2, ptr %s2.addr, align 8
  store i64 %n, ptr %n.addr, align 8
  br label %for.cond

for.cond:                                         ; preds = %if.then, %entry
  %0 = load i64, ptr %n.addr, align 8
  %cmp = icmp ugt i64 %0, 0
  br i1 %cmp, label %for.body, label %for.end

for.body:                                         ; preds = %for.cond
  %1 = load ptr, ptr %s1.addr, align 8
  %incdec.ptr = getelementptr inbounds i8, ptr %1, i32 1
  store ptr %incdec.ptr, ptr %s1.addr, align 8
  %2 = load i8, ptr %1, align 1
  %idxprom = zext i8 %2 to i64
  %arrayidx = getelementptr inbounds [256 x i8], ptr @_ZN8proxygenL14gperf_downcaseE, i64 0, i64 %idxprom
  %3 = load i8, ptr %arrayidx, align 1
  store i8 %3, ptr %c1, align 1
  %4 = load ptr, ptr %s2.addr, align 8
  %incdec.ptr1 = getelementptr inbounds i8, ptr %4, i32 1
  store ptr %incdec.ptr1, ptr %s2.addr, align 8
  %5 = load i8, ptr %4, align 1
  %idxprom2 = zext i8 %5 to i64
  %arrayidx3 = getelementptr inbounds [256 x i8], ptr @_ZN8proxygenL14gperf_downcaseE, i64 0, i64 %idxprom2
  %6 = load i8, ptr %arrayidx3, align 1
  store i8 %6, ptr %c2, align 1
  %7 = load i8, ptr %c1, align 1
  %conv = zext i8 %7 to i32
  %8 = load i8, ptr %c2, align 1
  %conv4 = zext i8 %8 to i32
  %cmp5 = icmp eq i32 %conv, %conv4
  br i1 %cmp5, label %if.then, label %if.end

if.then:                                          ; preds = %for.body
  %9 = load i64, ptr %n.addr, align 8
  %dec = add i64 %9, -1
  store i64 %dec, ptr %n.addr, align 8
  br label %for.cond, !llvm.loop !4

if.end:                                           ; preds = %for.body
  %10 = load i8, ptr %c1, align 1
  %conv6 = zext i8 %10 to i32
  %11 = load i8, ptr %c2, align 1
  %conv7 = zext i8 %11 to i32
  %sub = sub nsw i32 %conv6, %conv7
  store i32 %sub, ptr %retval, align 4
  br label %return

for.end:                                          ; preds = %for.cond
  store i32 0, ptr %retval, align 4
  br label %return

return:                                           ; preds = %for.end, %if.end
  %12 = load i32, ptr %retval, align 4
  ret i32 %12
}

; Function Attrs: mustprogress nounwind uwtable
define linkonce_odr noundef i32 @_ZN8proxygen25HTTPCommonHeadersInternal4hashEPKcm(ptr noundef %str, i64 noundef %len) #1 comdat align 2 {
entry:
  %str.addr = alloca ptr, align 8
  %len.addr = alloca i64, align 8
  %hval = alloca i32, align 4
  store ptr %str, ptr %str.addr, align 8
  store i64 %len, ptr %len.addr, align 8
  %0 = load i64, ptr %len.addr, align 8
  %conv = trunc i64 %0 to i32
  store i32 %conv, ptr %hval, align 4
  %1 = load i32, ptr %hval, align 4
  switch i32 %1, label %sw.default [
    i32 21, label %sw.bb
    i32 20, label %sw.bb
    i32 19, label %sw.bb
    i32 18, label %sw.bb
    i32 17, label %sw.bb
    i32 16, label %sw.bb
    i32 15, label %sw.bb
    i32 14, label %sw.bb
    i32 13, label %sw.bb
    i32 12, label %sw.bb
    i32 11, label %sw.bb
    i32 10, label %sw.bb
    i32 9, label %sw.bb
    i32 8, label %sw.bb
    i32 7, label %sw.bb
    i32 6, label %sw.bb
    i32 5, label %sw.bb
    i32 4, label %sw.bb
    i32 3, label %sw.bb
    i32 2, label %sw.bb11
  ]

sw.default:                                       ; preds = %entry
  %2 = load ptr, ptr %str.addr, align 8
  %arrayidx = getelementptr inbounds i8, ptr %2, i64 21
  %3 = load i8, ptr %arrayidx, align 1
  %idxprom = zext i8 %3 to i64
  %arrayidx1 = getelementptr inbounds [257 x i8], ptr @_ZZN8proxygen25HTTPCommonHeadersInternal4hashEPKcmE11asso_values, i64 0, i64 %idxprom
  %4 = load i8, ptr %arrayidx1, align 1
  %conv2 = zext i8 %4 to i32
  %5 = load i32, ptr %hval, align 4
  %add = add i32 %5, %conv2
  store i32 %add, ptr %hval, align 4
  br label %sw.bb

sw.bb:                                            ; preds = %sw.default, %entry, %entry, %entry, %entry, %entry, %entry, %entry, %entry, %entry, %entry, %entry, %entry, %entry, %entry, %entry, %entry, %entry, %entry, %entry
  %6 = load ptr, ptr %str.addr, align 8
  %arrayidx3 = getelementptr inbounds i8, ptr %6, i64 2
  %7 = load i8, ptr %arrayidx3, align 1
  %conv4 = sext i8 %7 to i32
  %add5 = add nsw i32 %conv4, 1
  %conv6 = trunc i32 %add5 to i8
  %idxprom7 = zext i8 %conv6 to i64
  %arrayidx8 = getelementptr inbounds [257 x i8], ptr @_ZZN8proxygen25HTTPCommonHeadersInternal4hashEPKcmE11asso_values, i64 0, i64 %idxprom7
  %8 = load i8, ptr %arrayidx8, align 1
  %conv9 = zext i8 %8 to i32
  %9 = load i32, ptr %hval, align 4
  %add10 = add i32 %9, %conv9
  store i32 %add10, ptr %hval, align 4
  br label %sw.bb11

sw.bb11:                                          ; preds = %sw.bb, %entry
  br label %sw.epilog

sw.epilog:                                        ; preds = %sw.bb11
  %10 = load i32, ptr %hval, align 4
  %11 = load ptr, ptr %str.addr, align 8
  %12 = load i64, ptr %len.addr, align 8
  %sub = sub i64 %12, 1
  %arrayidx12 = getelementptr inbounds i8, ptr %11, i64 %sub
  %13 = load i8, ptr %arrayidx12, align 1
  %idxprom13 = zext i8 %13 to i64
  %arrayidx14 = getelementptr inbounds [257 x i8], ptr @_ZZN8proxygen25HTTPCommonHeadersInternal4hashEPKcmE11asso_values, i64 0, i64 %idxprom13
  %14 = load i8, ptr %arrayidx14, align 1
  %conv15 = zext i8 %14 to i32
  %add16 = add i32 %10, %conv15
  ret i32 %add16
}

; Function Attrs: mustprogress uwtable
define noundef ptr @_ZN8proxygen25HTTPCommonHeadersInternal11in_word_setEPKcm(ptr noundef %str, i64 noundef %len) #0 align 2 {
entry:
  %retval = alloca ptr, align 8
  %str.addr = alloca ptr, align 8
  %len.addr = alloca i64, align 8
  %key = alloca i32, align 4
  %index = alloca i32, align 4
  %s = alloca ptr, align 8
  store ptr %str, ptr %str.addr, align 8
  store i64 %len, ptr %len.addr, align 8
  %0 = load i64, ptr %len.addr, align 8
  %cmp = icmp ule i64 %0, 40
  br i1 %cmp, label %land.lhs.true, label %if.end24

land.lhs.true:                                    ; preds = %entry
  %1 = load i64, ptr %len.addr, align 8
  %cmp1 = icmp uge i64 %1, 2
  br i1 %cmp1, label %if.then, label %if.end24

if.then:                                          ; preds = %land.lhs.true
  %2 = load ptr, ptr %str.addr, align 8
  %3 = load i64, ptr %len.addr, align 8
  %call = call noundef i32 @_ZN8proxygen25HTTPCommonHeadersInternal4hashEPKcm(ptr noundef %2, i64 noundef %3)
  store i32 %call, ptr %key, align 4
  %4 = load i32, ptr %key, align 4
  %cmp2 = icmp ule i32 %4, 115
  br i1 %cmp2, label %if.then3, label %if.end23

if.then3:                                         ; preds = %if.then
  %5 = load i32, ptr %key, align 4
  %idxprom = zext i32 %5 to i64
  %arrayidx = getelementptr inbounds [116 x i8], ptr @_ZN8proxygenL6lookupE, i64 0, i64 %idxprom
  %6 = load i8, ptr %arrayidx, align 1
  %conv = sext i8 %6 to i32
  store i32 %conv, ptr %index, align 4
  %7 = load i32, ptr %index, align 4
  %cmp4 = icmp sge i32 %7, 0
  br i1 %cmp4, label %if.then5, label %if.end22

if.then5:                                         ; preds = %if.then3
  %8 = load i64, ptr %len.addr, align 8
  %9 = load i32, ptr %index, align 4
  %idxprom6 = sext i32 %9 to i64
  %arrayidx7 = getelementptr inbounds [87 x i8], ptr @_ZN8proxygenL11lengthtableE, i64 0, i64 %idxprom6
  %10 = load i8, ptr %arrayidx7, align 1
  %conv8 = zext i8 %10 to i64
  %cmp9 = icmp eq i64 %8, %conv8
  br i1 %cmp9, label %if.then10, label %if.end21

if.then10:                                        ; preds = %if.then5
  %11 = load i32, ptr %index, align 4
  %idxprom11 = sext i32 %11 to i64
  %arrayidx12 = getelementptr inbounds [87 x %"struct.proxygen::HTTPCommonHeaderName"], ptr @_ZN8proxygenL8wordlistE, i64 0, i64 %idxprom11
  %name = getelementptr inbounds %"struct.proxygen::HTTPCommonHeaderName", ptr %arrayidx12, i32 0, i32 0
  %12 = load ptr, ptr %name, align 16
  store ptr %12, ptr %s, align 8
  %13 = load ptr, ptr %str.addr, align 8
  %14 = load i8, ptr %13, align 1
  %conv13 = zext i8 %14 to i32
  %15 = load ptr, ptr %s, align 8
  %16 = load i8, ptr %15, align 1
  %conv14 = zext i8 %16 to i32
  %xor = xor i32 %conv13, %conv14
  %and = and i32 %xor, -33
  %cmp15 = icmp eq i32 %and, 0
  br i1 %cmp15, label %land.lhs.true16, label %if.end

land.lhs.true16:                                  ; preds = %if.then10
  %17 = load ptr, ptr %str.addr, align 8
  %18 = load ptr, ptr %s, align 8
  %19 = load i64, ptr %len.addr, align 8
  %call17 = call noundef i32 @_ZN8proxygenL17gperf_case_memcmpEPKcS1_m(ptr noundef %17, ptr noundef %18, i64 noundef %19)
  %tobool = icmp ne i32 %call17, 0
  br i1 %tobool, label %if.end, label %if.then18

if.then18:                                        ; preds = %land.lhs.true16
  %20 = load i32, ptr %index, align 4
  %idxprom19 = sext i32 %20 to i64
  %arrayidx20 = getelementptr inbounds [87 x %"struct.proxygen::HTTPCommonHeaderName"], ptr @_ZN8proxygenL8wordlistE, i64 0, i64 %idxprom19
  store ptr %arrayidx20, ptr %retval, align 8
  br label %return

if.end:                                           ; preds = %land.lhs.true16, %if.then10
  br label %if.end21

if.end21:                                         ; preds = %if.end, %if.then5
  br label %if.end22

if.end22:                                         ; preds = %if.end21, %if.then3
  br label %if.end23

if.end23:                                         ; preds = %if.end22, %if.then
  br label %if.end24

if.end24:                                         ; preds = %if.end23, %land.lhs.true, %entry
  store ptr null, ptr %retval, align 8
  br label %return

return:                                           ; preds = %if.end24, %if.then18
  %21 = load ptr, ptr %retval, align 8
  ret ptr %21
}