; Function Attrs: mustprogress nofree norecurse nosync nounwind willreturn memory(read, inaccessiblemem: none) uwtable
define noundef ptr @_ZN8proxygen25HTTPCommonHeadersInternal11in_word_setEPKcm(ptr noundef readonly captures(none) %str, i64 noundef %len) local_unnamed_addr #0 align 2 {
entry:
  %0 = add i64 %len, -2
  %or.cond = icmp ult i64 %0, 39
  br i1 %or.cond, label %if.then, label %return

if.then:                                          ; preds = %entry
  %conv.i = trunc nuw i64 %len to i32
  switch i32 %conv.i, label %sw.default.i [
    i32 21, label %sw.bb.i
    i32 20, label %sw.bb.i
    i32 19, label %sw.bb.i
    i32 18, label %sw.bb.i
    i32 17, label %sw.bb.i
    i32 16, label %sw.bb.i
    i32 15, label %sw.bb.i
    i32 14, label %sw.bb.i
    i32 13, label %sw.bb.i
    i32 12, label %sw.bb.i
    i32 11, label %sw.bb.i
    i32 10, label %sw.bb.i
    i32 9, label %sw.bb.i
    i32 8, label %sw.bb.i
    i32 7, label %sw.bb.i
    i32 6, label %sw.bb.i
    i32 5, label %sw.bb.i
    i32 4, label %sw.bb.i
    i32 3, label %sw.bb.i
    i32 2, label %_ZN8proxygen25HTTPCommonHeadersInternal4hashEPKcm.exit
  ]

sw.default.i:                                     ; preds = %if.then
  %arrayidx.i = getelementptr inbounds nuw i8, ptr %str, i64 21
  %1 = load i8, ptr %arrayidx.i, align 1
  %idxprom.i = zext i8 %1 to i64
  %arrayidx1.i = getelementptr inbounds nuw [257 x i8], ptr @_ZZN8proxygen25HTTPCommonHeadersInternal4hashEPKcmE11asso_values, i64 0, i64 %idxprom.i
  %2 = load i8, ptr %arrayidx1.i, align 1
  %conv2.i = zext i8 %2 to i32
  %add.i = add nuw nsw i32 %conv2.i, %conv.i
  br label %sw.bb.i

sw.bb.i:                                          ; preds = %sw.default.i, %if.then, %if.then, %if.then, %if.then, %if.then, %if.then, %if.then, %if.then, %if.then, %if.then, %if.then, %if.then, %if.then, %if.then, %if.then, %if.then, %if.then, %if.then, %if.then
  %hval.0.i = phi i32 [ %add.i, %sw.default.i ], [ %conv.i, %if.then ], [ %conv.i, %if.then ], [ %conv.i, %if.then ], [ %conv.i, %if.then ], [ %conv.i, %if.then ], [ %conv.i, %if.then ], [ %conv.i, %if.then ], [ %conv.i, %if.then ], [ %conv.i, %if.then ], [ %conv.i, %if.then ], [ %conv.i, %if.then ], [ %conv.i, %if.then ], [ %conv.i, %if.then ], [ %conv.i, %if.then ], [ %conv.i, %if.then ], [ %conv.i, %if.then ], [ %conv.i, %if.then ], [ %conv.i, %if.then ], [ %conv.i, %if.then ]
  %arrayidx3.i = getelementptr inbounds nuw i8, ptr %str, i64 2
  %3 = load i8, ptr %arrayidx3.i, align 1
  %add5.i = add i8 %3, 1
  %idxprom7.i = zext i8 %add5.i to i64
  %arrayidx8.i = getelementptr inbounds nuw [257 x i8], ptr @_ZZN8proxygen25HTTPCommonHeadersInternal4hashEPKcmE11asso_values, i64 0, i64 %idxprom7.i
  %4 = load i8, ptr %arrayidx8.i, align 1
  %conv9.i = zext i8 %4 to i32
  %add10.i = add nuw nsw i32 %hval.0.i, %conv9.i
  br label %_ZN8proxygen25HTTPCommonHeadersInternal4hashEPKcm.exit

_ZN8proxygen25HTTPCommonHeadersInternal4hashEPKcm.exit: ; preds = %if.then, %sw.bb.i
  %hval.1.i = phi i32 [ %add10.i, %sw.bb.i ], [ %conv.i, %if.then ]
  %5 = getelementptr i8, ptr %str, i64 %len
  %arrayidx12.i = getelementptr i8, ptr %5, i64 -1
  %6 = load i8, ptr %arrayidx12.i, align 1
  %idxprom13.i = zext i8 %6 to i64
  %arrayidx14.i = getelementptr inbounds nuw [257 x i8], ptr @_ZZN8proxygen25HTTPCommonHeadersInternal4hashEPKcmE11asso_values, i64 0, i64 %idxprom13.i
  %7 = load i8, ptr %arrayidx14.i, align 1
  %conv15.i = zext i8 %7 to i32
  %add16.i = add nuw nsw i32 %hval.1.i, %conv15.i
  %cmp2 = icmp samesign ult i32 %add16.i, 116
  br i1 %cmp2, label %if.then3, label %return

if.then3:                                         ; preds = %_ZN8proxygen25HTTPCommonHeadersInternal4hashEPKcm.exit
  %idxprom = zext nneg i32 %add16.i to i64
  %arrayidx = getelementptr inbounds nuw [116 x i8], ptr @_ZN8proxygenL6lookupE, i64 0, i64 %idxprom
  %8 = load i8, ptr %arrayidx, align 1
  %cmp4 = icmp sgt i8 %8, -1
  br i1 %cmp4, label %if.then5, label %return

if.then5:                                         ; preds = %if.then3
  %conv = zext nneg i8 %8 to i64
  %arrayidx7 = getelementptr inbounds nuw [87 x i8], ptr @_ZN8proxygenL11lengthtableE, i64 0, i64 %conv
  %9 = load i8, ptr %arrayidx7, align 1
  %conv8 = zext i8 %9 to i64
  %cmp9 = icmp eq i64 %len, %conv8
  br i1 %cmp9, label %if.then10, label %return

if.then10:                                        ; preds = %if.then5
  %arrayidx12 = getelementptr inbounds nuw [87 x %"struct.proxygen::HTTPCommonHeaderName"], ptr @_ZN8proxygenL8wordlistE, i64 0, i64 %conv
  %10 = load ptr, ptr %arrayidx12, align 16
  %11 = load i8, ptr %str, align 1
  %12 = load i8, ptr %10, align 1
  %xor12 = xor i8 %12, %11
  %13 = and i8 %xor12, -33
  %cmp15 = icmp eq i8 %13, 0
  br i1 %cmp15, label %for.body.i, label %return

for.body.i:                                       ; preds = %if.then10, %if.then.i
  %s1.addr.07.i = phi ptr [ %incdec.ptr.i, %if.then.i ], [ %str, %if.then10 ]
  %n.addr.06.i = phi i64 [ %dec.i, %if.then.i ], [ %len, %if.then10 ]
  %s2.addr.05.i = phi ptr [ %incdec.ptr1.i, %if.then.i ], [ %10, %if.then10 ]
  %14 = load i8, ptr %s1.addr.07.i, align 1
  %idxprom.i13 = zext i8 %14 to i64
  %arrayidx.i14 = getelementptr inbounds nuw [256 x i8], ptr @_ZN8proxygenL14gperf_downcaseE, i64 0, i64 %idxprom.i13
  %15 = load i8, ptr %arrayidx.i14, align 1
  %16 = load i8, ptr %s2.addr.05.i, align 1
  %idxprom2.i = zext i8 %16 to i64
  %arrayidx3.i15 = getelementptr inbounds nuw [256 x i8], ptr @_ZN8proxygenL14gperf_downcaseE, i64 0, i64 %idxprom2.i
  %17 = load i8, ptr %arrayidx3.i15, align 1
  %cmp5.i = icmp eq i8 %15, %17
  br i1 %cmp5.i, label %if.then.i, label %return

if.then.i:                                        ; preds = %for.body.i
  %incdec.ptr1.i = getelementptr inbounds nuw i8, ptr %s2.addr.05.i, i64 1
  %incdec.ptr.i = getelementptr inbounds nuw i8, ptr %s1.addr.07.i, i64 1
  %dec.i = add nsw i64 %n.addr.06.i, -1
  %cmp.not.i = icmp eq i64 %dec.i, 0
  br i1 %cmp.not.i, label %return, label %for.body.i, !llvm.loop !4

return:                                           ; preds = %for.body.i, %if.then.i, %entry, %if.then3, %if.then10, %if.then5, %_ZN8proxygen25HTTPCommonHeadersInternal4hashEPKcm.exit
  %retval.0 = phi ptr [ null, %_ZN8proxygen25HTTPCommonHeadersInternal4hashEPKcm.exit ], [ null, %if.then5 ], [ null, %if.then10 ], [ null, %if.then3 ], [ null, %entry ], [ null, %for.body.i ], [ %arrayidx12, %if.then.i ]
  ret ptr %retval.0
}